target datalayout = "e-m:e-p270:32:32-p271:32:32-p272:64:64-i64:64-i128:128-f80:128-n8:16:32:64-S128"
target triple = "x86_64-pc-linux-gnu"

%struct.time_meas = type { i64, ptr }

; Function Attrs: mustprogress nounwind uwtable
define void @_ZN9time_measD2Ev(ptr noundef nonnull align 8 dereferenceable(16) %0) unnamed_addr #2 align 2 personality ptr @__gxx_personality_v0 {
  %2 = alloca ptr, align 8
  store ptr %0, ptr %2, align 8, !tbaa !3
  %3 = load ptr, ptr %2, align 8
  %4 = getelementptr inbounds nuw %struct.time_meas, ptr %3, i32 0, i32 0
  %5 = load i64, ptr %4, align 8, !tbaa !14
  %6 = icmp sge i64 %5, 0
  br i1 %6, label %7, label %17

7:                                                ; preds = %1
  %8 = invoke i64 @ggml_time_us()
          to label %9 unwind label %18

9:                                                ; preds = %7
  %10 = getelementptr inbounds nuw %struct.time_meas, ptr %3, i32 0, i32 0
  %11 = load i64, ptr %10, align 8, !tbaa !14
  %12 = sub nsw i64 %8, %11
  %13 = getelementptr inbounds nuw %struct.time_meas, ptr %3, i32 0, i32 1
  %14 = load ptr, ptr %13, align 8, !tbaa !17
  %15 = load i64, ptr %14, align 8, !tbaa !18
  %16 = add nsw i64 %15, %12
  store i64 %16, ptr %14, align 8, !tbaa !18
  br label %17

17:                                               ; preds = %9, %1
  ret void

18:                                               ; preds = %7
  %19 = landingpad { ptr, i32 }
          catch ptr null
  %20 = extractvalue { ptr, i32 } %19, 0
  call void @__clang_call_terminate(ptr %20) #17
  unreachable
}