; Function Attrs: mustprogress nounwind uwtable
define void @_ZN9time_measD2Ev(ptr noundef nonnull readonly align 8 captures(none) dereferenceable(16) %0) unnamed_addr #2 align 2 personality ptr @__gxx_personality_v0 {
  %2 = load i64, ptr %0, align 8, !tbaa !3
  %3 = icmp sgt i64 %2, -1
  br i1 %3, label %4, label %13

4:                                                ; preds = %1
  %5 = invoke i64 @ggml_time_us()
          to label %6 unwind label %14

6:                                                ; preds = %4
  %7 = load i64, ptr %0, align 8, !tbaa !3
  %8 = sub i64 %5, %7
  %9 = getelementptr inbounds nuw i8, ptr %0, i64 8
  %10 = load ptr, ptr %9, align 8, !tbaa !11
  %11 = load i64, ptr %10, align 8, !tbaa !12
  %12 = add nsw i64 %8, %11
  store i64 %12, ptr %10, align 8, !tbaa !12
  br label %13

13:                                               ; preds = %6, %1
  ret void

14:                                               ; preds = %4
  %15 = landingpad { ptr, i32 }
          catch ptr null
  %16 = extractvalue { ptr, i32 } %15, 0
  tail call void @__clang_call_terminate(ptr %16) #19
  unreachable
}